; ModuleID = '10/995.c'
source_filename = "10/995.c"
target datalayout = "e-m:e-p270:32:32-p271:32:32-p272:64:64-i64:64-f80:128-n8:16:32:64-S128"
target triple = "x86_64-pc-linux-gnu"

@.str = private unnamed_addr constant [3 x i8] c"%d\00", align 1

; Function Attrs: noinline nounwind uwtable
define dso_local i32 @max(i32 %0, i32 %1) #0 {
  %3 = alloca i32, align 4
  %4 = alloca i32, align 4
  %5 = alloca i32, align 4
  store i32 %0, i32* %4, align 4
  store i32 %1, i32* %5, align 4
  %6 = load i32, i32* %4, align 4
  %7 = load i32, i32* %5, align 4
  %8 = icmp sgt i32 %6, %7
  br i1 %8, label %9, label %11

9:                                                ; preds = %2
  %10 = load i32, i32* %4, align 4
  store i32 %10, i32* %3, align 4
  br label %13

11:                                               ; preds = %2
  %12 = load i32, i32* %5, align 4
  store i32 %12, i32* %3, align 4
  br label %13

13:                                               ; preds = %11, %9
  %14 = load i32, i32* %3, align 4
  ret i32 %14
}

; Function Attrs: noinline nounwind uwtable
define dso_local i32 @solve(i32 %0, i32 %1, i32* %2, i32 %3) #0 {
  %5 = alloca i32, align 4
  %6 = alloca i32, align 4
  %7 = alloca i32, align 4
  %8 = alloca i32*, align 8
  %9 = alloca i32, align 4
  store i32 %0, i32* %6, align 4
  store i32 %1, i32* %7, align 4
  store i32* %2, i32** %8, align 8
  store i32 %3, i32* %9, align 4
  %10 = load i32, i32* %6, align 4
  %11 = load i32, i32* %9, align 4
  %12 = icmp eq i32 %10, %11
  br i1 %12, label %13, label %14

13:                                               ; preds = %4
  store i32 0, i32* %5, align 4
  br label %64

14:                                               ; preds = %4
  %15 = load i32*, i32** %8, align 8
  %16 = load i32, i32* %6, align 4
  %17 = sext i32 %16 to i64
  %18 = getelementptr inbounds i32, i32* %15, i64 %17
  %19 = load i32, i32* %18, align 4
  %20 = load i32, i32* %7, align 4
  %21 = icmp eq i32 %19, %20
  br i1 %21, label %22, label %30

22:                                               ; preds = %14
  %23 = load i32, i32* %6, align 4
  %24 = add nsw i32 %23, 1
  %25 = load i32, i32* %7, align 4
  %26 = load i32*, i32** %8, align 8
  %27 = load i32, i32* %9, align 4
  %28 = call i32 @solve(i32 %24, i32 %25, i32* %26, i32 %27)
  %29 = add nsw i32 1, %28
  store i32 %29, i32* %5, align 4
  br label %64

30:                                               ; preds = %14
  %31 = load i32*, i32** %8, align 8
  %32 = load i32, i32* %6, align 4
  %33 = sext i32 %32 to i64
  %34 = getelementptr inbounds i32, i32* %31, i64 %33
  %35 = load i32, i32* %34, align 4
  %36 = load i32, i32* %7, align 4
  %37 = icmp sgt i32 %35, %36
  br i1 %37, label %38, label %45

38:                                               ; preds = %30
  %39 = load i32, i32* %6, align 4
  %40 = add nsw i32 %39, 1
  %41 = load i32, i32* %7, align 4
  %42 = load i32*, i32** %8, align 8
  %43 = load i32, i32* %9, align 4
  %44 = call i32 @solve(i32 %40, i32 %41, i32* %42, i32 %43)
  store i32 %44, i32* %5, align 4
  br label %64

45:                                               ; preds = %30
  %46 = load i32, i32* %6, align 4
  %47 = add nsw i32 %46, 1
  %48 = load i32, i32* %7, align 4
  %49 = load i32*, i32** %8, align 8
  %50 = load i32, i32* %9, align 4
  %51 = call i32 @solve(i32 %47, i32 %48, i32* %49, i32 %50)
  %52 = load i32, i32* %6, align 4
  %53 = add nsw i32 %52, 1
  %54 = load i32*, i32** %8, align 8
  %55 = load i32, i32* %6, align 4
  %56 = sext i32 %55 to i64
  %57 = getelementptr inbounds i32, i32* %54, i64 %56
  %58 = load i32, i32* %57, align 4
  %59 = load i32*, i32** %8, align 8
  %60 = load i32, i32* %9, align 4
  %61 = call i32 @solve(i32 %53, i32 %58, i32* %59, i32 %60)
  %62 = add nsw i32 1, %61
  %63 = call i32 @max(i32 %51, i32 %62)
  store i32 %63, i32* %5, align 4
  br label %64

64:                                               ; preds = %45, %38, %22, %13
  %65 = load i32, i32* %5, align 4
  ret i32 %65
}

; Function Attrs: noinline nounwind uwtable
define dso_local i32 @main() #0 {
  %1 = alloca i32, align 4
  %2 = alloca i32, align 4
  %3 = alloca [25 x i32], align 16
  %4 = alloca i32, align 4
  store i32 0, i32* %1, align 4
  %5 = call i32 (i8*, ...) @__isoc99_scanf(i8* getelementptr inbounds ([3 x i8], [3 x i8]* @.str, i64 0, i64 0), i32* %2)
  store i32 0, i32* %4, align 4
  br label %6

6:                                                ; preds = %15, %0
  %7 = load i32, i32* %4, align 4
  %8 = load i32, i32* %2, align 4
  %9 = icmp slt i32 %7, %8
  br i1 %9, label %10, label %18

10:                                               ; preds = %6
  %11 = load i32, i32* %4, align 4
  %12 = sext i32 %11 to i64
  %13 = getelementptr inbounds [25 x i32], [25 x i32]* %3, i64 0, i64 %12
  %14 = call i32 (i8*, ...) @__isoc99_scanf(i8* getelementptr inbounds ([3 x i8], [3 x i8]* @.str, i64 0, i64 0), i32* %13)
  br label %15

15:                                               ; preds = %10
  %16 = load i32, i32* %4, align 4
  %17 = add nsw i32 %16, 1
  store i32 %17, i32* %4, align 4
  br label %6

18:                                               ; preds = %6
  %19 = getelementptr inbounds [25 x i32], [25 x i32]* %3, i64 0, i64 0
  %20 = load i32, i32* %2, align 4
  %21 = call i32 @solve(i32 0, i32 100000, i32* %19, i32 %20)
  %22 = call i32 (i8*, ...) @printf(i8* getelementptr inbounds ([3 x i8], [3 x i8]* @.str, i64 0, i64 0), i32 %21)
  ret i32 0
}

declare dso_local i32 @__isoc99_scanf(i8*, ...) #1

declare dso_local i32 @printf(i8*, ...) #1


!llvm.module.flags = !{!0}
!llvm.ident = !{!1}

!0 = !{i32 1, !"wchar_size", i32 4}
!1 = !{!"clang version 10.0.0-4ubuntu1 "}
