; ModuleID = 'source-C-CXX/9/995.c'
source_filename = "source-C-CXX/9/995.c"
target datalayout = "e-m:e-p270:32:32-p271:32:32-p272:64:64-i64:64-f80:128-n8:16:32:64-S128"
target triple = "x86_64-pc-linux-gnu"

@.str = private unnamed_addr constant [3 x i8] c"%d\00", align 1

; Function Attrs: mustprogress nofree norecurse nosync nounwind readnone sspstrong uwtable willreturn
define dso_local i32 @max(i32 %0, i32 %1) local_unnamed_addr #0 {
  %3 = icmp sgt i32 %0, %1
  %4 = select i1 %3, i32 %0, i32 %1
  ret i32 %4
}

; Function Attrs: nofree nosync nounwind readonly sspstrong uwtable
define dso_local i32 @solve(i32 %0, i32 %1, i32* %2, i32 %3) local_unnamed_addr #1 {
  %5 = icmp eq i32 %0, %3
  br i1 %5, label %26, label %6

6:                                                ; preds = %4, %15
  %7 = phi i32 [ %17, %15 ], [ %0, %4 ]
  %8 = phi i32 [ %18, %15 ], [ 0, %4 ]
  %9 = sext i32 %7 to i64
  br label %10

10:                                               ; preds = %6, %22
  %11 = phi i64 [ %9, %6 ], [ %23, %22 ]
  %12 = getelementptr inbounds i32, i32* %2, i64 %11
  %13 = load i32, i32* %12, align 4, !tbaa !5
  %14 = icmp eq i32 %13, %1
  br i1 %14, label %15, label %20

15:                                               ; preds = %10
  %16 = trunc i64 %11 to i32
  %17 = add nsw i32 %16, 1
  %18 = add nuw nsw i32 %8, 1
  %19 = icmp eq i32 %17, %3
  br i1 %19, label %26, label %6

20:                                               ; preds = %10
  %21 = icmp sgt i32 %13, %1
  br i1 %21, label %22, label %28

22:                                               ; preds = %20
  %23 = add nsw i64 %11, 1
  %24 = trunc i64 %23 to i32
  %25 = icmp eq i32 %24, %3
  br i1 %25, label %26, label %10

26:                                               ; preds = %15, %22, %4, %28
  %27 = phi i32 [ %36, %28 ], [ 0, %4 ], [ %8, %22 ], [ %18, %15 ]
  ret i32 %27

28:                                               ; preds = %20
  %29 = trunc i64 %11 to i32
  %30 = add nsw i32 %29, 1
  %31 = tail call i32 @solve(i32 %30, i32 %1, i32* nonnull %2, i32 %3)
  %32 = tail call i32 @solve(i32 %30, i32 %13, i32* nonnull %2, i32 %3)
  %33 = add nsw i32 %32, 1
  %34 = icmp sgt i32 %31, %33
  %35 = select i1 %34, i32 %31, i32 %33
  %36 = add nsw i32 %35, %8
  br label %26
}

; Function Attrs: nofree nounwind sspstrong uwtable
define dso_local i32 @main() local_unnamed_addr #2 {
  %1 = alloca i32, align 4
  %2 = alloca [25 x i32], align 16
  %3 = bitcast i32* %1 to i8*
  call void @llvm.lifetime.start.p0i8(i64 4, i8* nonnull %3) #5
  %4 = bitcast [25 x i32]* %2 to i8*
  call void @llvm.lifetime.start.p0i8(i64 100, i8* nonnull %4) #5
  %5 = call i32 (i8*, ...) @__isoc99_scanf(i8* getelementptr inbounds ([3 x i8], [3 x i8]* @.str, i64 0, i64 0), i32* nonnull %1)
  %6 = load i32, i32* %1, align 4, !tbaa !5
  %7 = icmp sgt i32 %6, 0
  br i1 %7, label %13, label %8

8:                                                ; preds = %13, %0
  %9 = phi i32 [ %6, %0 ], [ %18, %13 ]
  %10 = getelementptr inbounds [25 x i32], [25 x i32]* %2, i64 0, i64 0
  %11 = call i32 @solve(i32 0, i32 100000, i32* nonnull %10, i32 %9)
  %12 = call i32 (i8*, ...) @printf(i8* nonnull dereferenceable(1) getelementptr inbounds ([3 x i8], [3 x i8]* @.str, i64 0, i64 0), i32 %11)
  call void @llvm.lifetime.end.p0i8(i64 100, i8* nonnull %4) #5
  call void @llvm.lifetime.end.p0i8(i64 4, i8* nonnull %3) #5
  ret i32 0

13:                                               ; preds = %0, %13
  %14 = phi i64 [ %17, %13 ], [ 0, %0 ]
  %15 = getelementptr inbounds [25 x i32], [25 x i32]* %2, i64 0, i64 %14
  %16 = call i32 (i8*, ...) @__isoc99_scanf(i8* getelementptr inbounds ([3 x i8], [3 x i8]* @.str, i64 0, i64 0), i32* nonnull %15)
  %17 = add nuw nsw i64 %14, 1
  %18 = load i32, i32* %1, align 4, !tbaa !5
  %19 = sext i32 %18 to i64
  %20 = icmp slt i64 %17, %19
  br i1 %20, label %13, label %8, !llvm.loop !9
}

; Function Attrs: argmemonly mustprogress nofree nosync nounwind willreturn
declare void @llvm.lifetime.start.p0i8(i64 immarg, i8* nocapture) #3

; Function Attrs: nofree nounwind
declare noundef i32 @__isoc99_scanf(i8* nocapture noundef readonly, ...) local_unnamed_addr #4

; Function Attrs: argmemonly mustprogress nofree nosync nounwind willreturn
declare void @llvm.lifetime.end.p0i8(i64 immarg, i8* nocapture) #3

; Function Attrs: nofree nounwind
declare noundef i32 @printf(i8* nocapture noundef readonly, ...) local_unnamed_addr #4


!llvm.module.flags = !{!0, !1, !2, !3}
!llvm.ident = !{!4}

!0 = !{i32 1, !"wchar_size", i32 4}
!1 = !{i32 7, !"PIC Level", i32 2}
!2 = !{i32 7, !"PIE Level", i32 2}
!3 = !{i32 7, !"uwtable", i32 1}
!4 = !{!"clang version 13.0.0"}
!5 = !{!6, !6, i64 0}
!6 = !{!"int", !7, i64 0}
!7 = !{!"omnipotent char", !8, i64 0}
!8 = !{!"Simple C/C++ TBAA"}
!9 = distinct !{!9, !10}
!10 = !{!"llvm.loop.mustprogress"}
